///////////////////////////////////////////////////////////////////////////////
//
// IAR ANSI C/C++ Compiler V8.40.2.214/W32 for ARM        11/Mar/2021  10:11:09
// Copyright 1999-2019 IAR Systems AB.
//
//    Cpu mode     =  
//    Endian       =  little
//    Source file  =  C:\Users\User\Desktop\RtosWrapper\main.cpp
//    Command line =
//        -f C:\Users\User\AppData\Local\Temp\EW5BE0.tmp
//        (C:\Users\User\Desktop\RtosWrapper\main.cpp -lC
//        C:\Users\User\Desktop\RtosWrapper\Debug\List -lA
//        C:\Users\User\Desktop\RtosWrapper\Debug\List -o
//        C:\Users\User\Desktop\RtosWrapper\Debug\Obj --no_cse --no_unroll
//        --no_inline --no_code_motion --no_tbaa --no_clustering
//        --no_scheduling --debug --endian=little --cpu=Cortex-M4 -e
//        --fpu=VFPv4_sp --dlib_config "C:\Program Files (x86)\IAR
//        Systems\Embedded Workbench 8.3\arm\inc\c\DLib_Config_Normal.h" -I
//        C:\Users\User\Desktop\RtosWrapper\Rtos\ -I
//        C:\Users\User\Desktop\RtosWrapper\Rtos\wrapper\ -I
//        C:\Users\User\Desktop\RtosWrapper\Rtos\wrapper\FreeRtos\ -I
//        C:\Users\User\Desktop\RtosWrapper\Rtos\FreeRtos\ -I
//        C:\Users\User\Desktop\RtosWrapper\Rtos\FreeRtos\include\ -I
//        C:\Users\User\Desktop\RtosWrapper\Rtos\FreeRtos\portable\ -I
//        C:\Users\User\Desktop\RtosWrapper\Rtos\FreeRtos\portable\Common\ -I
//        C:\Users\User\Desktop\RtosWrapper\Rtos\FreeRtos\portable\IAR\ -I
//        C:\Users\User\Desktop\RtosWrapper\Rtos\FreeRtos\portable\IAR\ARM_CM4F\
//        -I C:\Users\User\Desktop\RtosWrapper\Rtos\FreeRtos\portable\MemMang\
//        -I C:\Users\User\Desktop\RtosWrapper\MyTasks\ -I
//        C:\Users\User\Desktop\RtosWrapper\Common\ -I
//        C:\Users\User\Desktop\RtosWrapper\CMSIS\ -I
//        C:\Users\User\Desktop\RtosWrapper\Application\ -I
//        C:\Users\User\Desktop\RtosWrapper\Application\Diagnostic\ -I
//        C:\Users\User\Desktop\RtosWrapper\AHardware\ -I
//        C:\Users\User\Desktop\RtosWrapper\AHardware\GpioPort\ -I
//        C:\Users\User\Desktop\RtosWrapper\AHardware\IrqController\ -I
//        C:\Users\User\Desktop\RtosWrapper\..\CortexLib\AbstractHardware\Pin\
//        -I
//        C:\Users\User\Desktop\RtosWrapper\..\CortexLib\AbstractHardware\Registers\STM32F411\FieldValues\
//        -I
//        C:\Users\User\Desktop\RtosWrapper\..\CortexLib\AbstractHardware\Registers\STM32F411\
//        -I
//        C:\Users\User\Desktop\RtosWrapper\..\CortexLib\AbstractHardware\Registers\
//        -I
//        C:\Users\User\Desktop\RtosWrapper\..\CortexLib\AbstractHardware\Port\
//        -I
//        C:\Users\User\Desktop\RtosWrapper\..\CortexLib\AbstractHardware\Atomic\
//        -I C:\Users\User\Desktop\RtosWrapper\..\CortexLib\Common\ -I
//        C:\Users\User\Desktop\RtosWrapper\..\CortexLib\Common\Singleton\ -I
//        C:\Users\User\Desktop\RtosWrapper\..\CortexLib\Common\RomObject\ -I
//        C:\Users\User\Desktop\RtosWrapper\AHardware\STM32F411\FieldValues\ -I
//        C:\Users\User\Desktop\RtosWrapper\AHardware\CortexM4\ -I
//        C:\Users\User\Desktop\RtosWrapper\AHardware\CortexM4\FieldValues\ -I
//        C:\Users\User\Desktop\RtosWrapper\AHardware\CortexM4\ -I
//        C:\Users\User\Desktop\RtosWrapper\AHardware\STM32F411\ -Ol --c++
//        --no_exceptions --no_rtti)
//    Locale       =  C
//    List file    =  C:\Users\User\Desktop\RtosWrapper\Debug\List\main.s
//
///////////////////////////////////////////////////////////////////////////////

        RTMODEL "__CPP_Exceptions", "Disabled"
        RTMODEL "__CPP_Language", "C++14"
        RTMODEL "__SystemLibrary", "DLib"
        RTMODEL "__dlib_file_descriptor", "0"
        RTMODEL "__dlib_full_locale_support", "0"
        RTMODEL "__dlib_version", "6"
        AAPCS BASE,INTERWORK,VFP
        PRESERVE8
        REQUIRE8

        #define SHT_PROGBITS 0x1
        #define SHT_INIT_ARRAY 0xe

        EXTERN _ZN10ButtonTaskC1ER7IButtonRN9OsWrapper5EventE
        EXTERN _ZN7LedTaskC1ER4ILedNSt6chrono8durationIxSt5ratioILx1ELx1000EEEERN9OsWrapper5EventE
        EXTERN _ZTVN10__cxxabiv117__class_type_infoE
        EXTERN _ZTVN10__cxxabiv120__si_class_type_infoE
        EXTERN __aeabi_atexit
        EXTERN __aeabi_ldivmod
        EXTERN __dso_handle
        EXTERN vEventGroupDelete
        EXTERN vTaskStartScheduler
        EXTERN xEventGroupCreateStatic
        EXTERN xTaskCreateStatic
        EXTERN xTaskGetTickCount

        PUBLIC SystemCoreClock
        PUBLIC _ZN12RegisterBaseILj1073874960ELj32E8ReadModeE3GetIS0_vEEjv
        PUBLIC _ZN12RegisterBaseILj1073874964ELj32E13ReadWriteModeE6ToggleIS0_vEEvj
        PUBLIC _ZN14FieldValueBaseI18RCC_CFGR_SW_ValuesIN3RCC4CFGRELj0ELj2E13ReadWriteModeNS1_11RCCCFGRBaseEES4_Lj0EE3SetIS3_vEEvv
        PUBLIC _ZN14FieldValueBaseI19RCC_CFGR_SWS_ValuesIN3RCC4CFGRELj2ELj2E8ReadModeNS1_11RCCCFGRBaseEES4_Lj0EE5IsSetIS3_vEEbv
        PUBLIC _ZN14FieldValueBaseI19RCC_CR_HSION_ValuesIN3RCC2CRELj0ELj1E13ReadWriteModeNS1_9RCCCRBaseEES4_Lj1EE3SetIS3_vEEvv
        PUBLIC _ZN14FieldValueBaseI20RCC_CR_HSIRDY_ValuesIN3RCC2CRELj1ELj1E8ReadModeNS1_9RCCCRBaseEES4_Lj0EE5IsSetIS3_vEEbv
        PUBLIC _ZN14FieldValueBaseI25RCC_AHB1ENR_DMA2EN_ValuesIN3RCC7APB2ENRELj14ELj1E13ReadWriteModeNS1_14RCCAPB2ENRBaseEES4_Lj1EE3SetIS3_vEEvv
        PUBLIC _ZN14FieldValueBaseI26GPIOA_MODER_MODER15_ValuesIN5GPIOA5MODERELj10ELj2E13ReadWriteModeNS1_14GPIOAMODERBaseEES4_Lj1EE3SetIS3_vEEvv
        PUBLIC _ZN3LedI5GPIOCLi8EE6ToggleEv
        PUBLIC _ZN6ButtonI5GPIOCLi13EE9IsPressedEv
        PUBLIC _ZN8RegisterILj1073874944ELj32E13ReadWriteModeN5GPIOC14GPIOCMODERBaseEJ10FieldValueI26GPIOC_MODER_MODER15_ValuesINS1_5MODERELj10ELj2ES0_S2_ES2_Lj1EvES3_IS4_IS5_Lj16ELj2ES0_S2_ES2_Lj1EvES3_IS4_IS5_Lj18ELj2ES0_S2_ES2_Lj1EvEEE3SetIS0_vEEvv
        PUBLIC _ZN8RegisterILj1073887280ELj32E13ReadWriteModeN3RCC14RCCAHB1ENRBaseEJ10FieldValueI26RCC_AHB1ENR_GPIOCEN_ValuesINS1_7AHB1ENRELj2ELj1ES0_S2_ES2_Lj1EvES3_I26RCC_AHB1ENR_GPIOAEN_ValuesIS5_Lj0ELj1ES0_S2_ES2_Lj1EvEEE3SetIS0_vEEvv
        PUBLIC _ZN9OsWrapper11RtosWrapper12wCreateEventER19xSTATIC_EVENT_GROUP
        PUBLIC _ZN9OsWrapper11RtosWrapper12wDeleteEventERPv
        PUBLIC _ZN9OsWrapper11RtosWrapper13wCreateThreadINS_4RtosE10ButtonTaskEEvRT0_PKcNS_14ThreadPriorityEtPj
        PUBLIC _ZN9OsWrapper11RtosWrapper13wCreateThreadINS_4RtosE7LedTaskEEvRT0_PKcNS_14ThreadPriorityEtPj
        PUBLIC _ZN9OsWrapper11RtosWrapper6wStartEv
        PUBLIC _ZN9OsWrapper11RtosWrapper9wGetTicksEv
        PUBLIC _ZN9OsWrapper4Rtos12CreateThreadI10ButtonTaskEEvRT_PKcNS_14ThreadPriorityE
        PUBLIC _ZN9OsWrapper4Rtos12CreateThreadI7LedTaskEEvRT_PKcNS_14ThreadPriorityE
        PUBLIC _ZN9OsWrapper4Rtos3RunEPv
        PUBLIC _ZN9OsWrapper4Rtos5StartEv
        PUBLIC _ZN9OsWrapper5EventC1ENSt6chrono8durationIxSt5ratioILx1ELx1000EEEEj
        PUBLIC _ZN9OsWrapper5EventD1Ev
        PUBLIC _ZN9OsWrapper7IThread3RunEv
        PUBLIC _ZNKSt6chrono8durationIjSt5ratioILx10ELx1000EEE5countEv
        PUBLIC _ZNKSt6chrono8durationIxSt5ratioILx1ELx1000EEE5countEv
        PUBLIC _ZNSt5arrayIjLj128EE4dataEv
        PUBLIC _ZNSt6chrono12steady_clock9is_steadyE
        PUBLIC _ZNSt6chrono12system_clock12is_monotonicE
        PUBLIC _ZNSt6chrono12system_clock9is_steadyE
        PUBLIC _ZNSt6chrono13duration_castINS_8durationIjSt5ratioILx10ELx1000EEEExS2_ILx1ELx1000EEEENSt9enable_ifIXsr3std6chrono12_Is_durationIT_EE5valueES7_E4typeERKNS1_IT0_T1_EE
        PUBLIC _ZNSt6chrono8durationIjSt5ratioILx10ELx1000EEEC1IjvEERKT_
        PUBLIC _ZTI3LedI5GPIOCLi8EE
        PUBLIC _ZTI4ILed
        PUBLIC _ZTI6ButtonI5GPIOCLi13EE
        PUBLIC _ZTI7IButton
        PUBLIC _ZTIN9OsWrapper7IThreadE
        PUBLIC _ZTISt10ctype_base
        PUBLIC _ZTS3LedI5GPIOCLi8EE
        PUBLIC _ZTS4ILed
        PUBLIC _ZTS6ButtonI5GPIOCLi13EE
        PUBLIC _ZTS7IButton
        PUBLIC _ZTSN9OsWrapper7IThreadE
        PUBLIC _ZTSSt10ctype_base
        PUBLIC _ZTV3LedI5GPIOCLi8EE
        PUBLIC _ZTV6ButtonI5GPIOCLi13EE
        PUBLIC _ZZN8RegisterILj1073874944ELj32E13ReadWriteModeN5GPIOC14GPIOCMODERBaseEJ10FieldValueI26GPIOC_MODER_MODER15_ValuesINS1_5MODERELj10ELj2ES0_S2_ES2_Lj1EvES3_IS4_IS5_Lj16ELj2ES0_S2_ES2_Lj1EvES3_IS4_IS5_Lj18ELj2ES0_S2_ES2_Lj1EvEEE3SetIS0_vEEvvE4mask
        PUBLIC _ZZN8RegisterILj1073874944ELj32E13ReadWriteModeN5GPIOC14GPIOCMODERBaseEJ10FieldValueI26GPIOC_MODER_MODER15_ValuesINS1_5MODERELj10ELj2ES0_S2_ES2_Lj1EvES3_IS4_IS5_Lj16ELj2ES0_S2_ES2_Lj1EvES3_IS4_IS5_Lj18ELj2ES0_S2_ES2_Lj1EvEEE3SetIS0_vEEvvE5value
        PUBLIC _ZZN8RegisterILj1073887280ELj32E13ReadWriteModeN3RCC14RCCAHB1ENRBaseEJ10FieldValueI26RCC_AHB1ENR_GPIOCEN_ValuesINS1_7AHB1ENRELj2ELj1ES0_S2_ES2_Lj1EvES3_I26RCC_AHB1ENR_GPIOAEN_ValuesIS5_Lj0ELj1ES0_S2_ES2_Lj1EvEEE3SetIS0_vEEvvE4mask
        PUBLIC _ZZN8RegisterILj1073887280ELj32E13ReadWriteModeN3RCC14RCCAHB1ENRBaseEJ10FieldValueI26RCC_AHB1ENR_GPIOCEN_ValuesINS1_7AHB1ENRELj2ELj1ES0_S2_ES2_Lj1EvES3_I26RCC_AHB1ENR_GPIOAEN_ValuesIS5_Lj0ELj1ES0_S2_ES2_Lj1EvEEE3SetIS0_vEEvvE5value
        PUBLIC __low_level_init
        PUBLIC button
        PUBLIC buttonTask
        PUBLIC event
        PUBLIC led3
        PUBLIC led3task
        PUBLIC main
        
          CFI Names cfiNames0
          CFI StackFrame CFA R13 DATA
          CFI Resource R0:32, R1:32, R2:32, R3:32, R4:32, R5:32, R6:32, R7:32
          CFI Resource R8:32, R9:32, R10:32, R11:32, R12:32, R13:32, R14:32
          CFI Resource D0:64, D1:64, D2:64, D3:64, D4:64, D5:64, D6:64, D7:64
          CFI Resource D8:64, D9:64, D10:64, D11:64, D12:64, D13:64, D14:64
          CFI Resource D15:64
          CFI EndNames cfiNames0
        
          CFI Common cfiCommon0 Using cfiNames0
          CFI CodeAlign 2
          CFI DataAlign 4
          CFI ReturnAddress R14 CODE
          CFI CFA R13+0
          CFI R0 Undefined
          CFI R1 Undefined
          CFI R2 Undefined
          CFI R3 Undefined
          CFI R4 SameValue
          CFI R5 SameValue
          CFI R6 SameValue
          CFI R7 SameValue
          CFI R8 SameValue
          CFI R9 SameValue
          CFI R10 SameValue
          CFI R11 SameValue
          CFI R12 Undefined
          CFI R14 SameValue
          CFI D0 Undefined
          CFI D1 Undefined
          CFI D2 Undefined
          CFI D3 Undefined
          CFI D4 Undefined
          CFI D5 Undefined
          CFI D6 Undefined
          CFI D7 Undefined
          CFI D8 SameValue
          CFI D9 SameValue
          CFI D10 SameValue
          CFI D11 SameValue
          CFI D12 SameValue
          CFI D13 SameValue
          CFI D14 SameValue
          CFI D15 SameValue
          CFI EndCommon cfiCommon0
        

        SECTION `.rodata`:CONST:REORDER:NOROOT(2)
        SECTION_GROUP _ZTIN9OsWrapper7IThreadE
        DATA
// __absolute __class_type_info const <Typeinfo for OsWrapper::IThread>
_ZTIN9OsWrapper7IThreadE:
        DATA32
        DC32 _ZTVN10__cxxabiv117__class_type_infoE + 0x8
        DC32 _ZTSN9OsWrapper7IThreadE

        SECTION `.rodata`:CONST:REORDER:NOROOT(2)
        SECTION_GROUP _ZTV3LedI5GPIOCLi8EE
        DATA
// __absolute void (*const Led<GPIOC, 8>::__vtbl[3])()
_ZTV3LedI5GPIOCLi8EE:
        DATA32
        DC32 0x0, _ZTI3LedI5GPIOCLi8EE, _ZN3LedI5GPIOCLi8EE6ToggleEv

        SECTION `.rodata`:CONST:REORDER:NOROOT(2)
        SECTION_GROUP _ZTV6ButtonI5GPIOCLi13EE
        DATA
// __absolute void (*const Button<GPIOC, 13>::__vtbl[3])()
_ZTV6ButtonI5GPIOCLi13EE:
        DATA32
        DC32 0x0, _ZTI6ButtonI5GPIOCLi13EE, _ZN6ButtonI5GPIOCLi13EE9IsPressedEv

        SECTION `.rodata`:CONST:REORDER:NOROOT(2)
        SECTION_GROUP _ZTI4ILed
        DATA
// __absolute __class_type_info const <Typeinfo for ILed>
_ZTI4ILed:
        DATA32
        DC32 _ZTVN10__cxxabiv117__class_type_infoE + 0x8, _ZTS4ILed

        SECTION `.rodata`:CONST:REORDER:NOROOT(2)
        SECTION_GROUP _ZTI7IButton
        DATA
// __absolute __class_type_info const <Typeinfo for IButton>
_ZTI7IButton:
        DATA32
        DC32 _ZTVN10__cxxabiv117__class_type_infoE + 0x8, _ZTS7IButton

        SECTION `.rodata`:CONST:REORDER:NOROOT(2)
        SECTION_GROUP _ZTI3LedI5GPIOCLi8EE
        DATA
// __absolute __si_class_type_info const <Typeinfo for Led<GPIOC, (int)8>>
_ZTI3LedI5GPIOCLi8EE:
        DATA32
        DC32 _ZTVN10__cxxabiv120__si_class_type_infoE + 0x8
        DC32 _ZTS3LedI5GPIOCLi8EE, _ZTI4ILed

        SECTION `.rodata`:CONST:REORDER:NOROOT(2)
        SECTION_GROUP _ZTI6ButtonI5GPIOCLi13EE
        DATA
// __absolute __si_class_type_info const <Typeinfo for Button<GPIOC, (int)13>>
_ZTI6ButtonI5GPIOCLi13EE:
        DATA32
        DC32 _ZTVN10__cxxabiv120__si_class_type_infoE + 0x8
        DC32 _ZTS6ButtonI5GPIOCLi13EE, _ZTI7IButton

        SECTION `.rodata`:CONST:REORDER:NOROOT(2)
        SECTION_GROUP _ZTS4ILed
        DATA
// __absolute char const <Typeinfo name for ILed>[6]
_ZTS4ILed:
        DATA8
        DC8 "4ILed"
        DATA16
        DC8 0, 0

        SECTION `.rodata`:CONST:REORDER:NOROOT(2)
        SECTION_GROUP _ZTS7IButton
        DATA
// __absolute char const <Typeinfo name for IButton>[9]
_ZTS7IButton:
        DATA8
        DC8 "7IButton"
        DATA
        DC8 0, 0, 0

        SECTION `.rodata`:CONST:REORDER:NOROOT(2)
        SECTION_GROUP _ZTS3LedI5GPIOCLi8EE
        DATA
// __absolute char const <Typeinfo name for Led<GPIOC, (int)8>>[17]
_ZTS3LedI5GPIOCLi8EE:
        DATA8
        DC8 "3LedI5GPIOCLi8EE"
        DATA
        DC8 0, 0, 0

        SECTION `.rodata`:CONST:REORDER:NOROOT(2)
        SECTION_GROUP _ZTS6ButtonI5GPIOCLi13EE
        DATA
// __absolute char const <Typeinfo name for Button<GPIOC, (int)13>>[21]
_ZTS6ButtonI5GPIOCLi13EE:
        DATA8
        DC8 "6ButtonI5GPIOCLi13EE"
        DATA
        DC8 0, 0, 0

        SECTION `.rodata`:CONST:REORDER:NOROOT(2)
        SECTION_GROUP _ZTISt10ctype_base
        DATA
// __absolute __class_type_info const <Typeinfo for std::ctype_base>
_ZTISt10ctype_base:
        DATA32
        DC32 _ZTVN10__cxxabiv117__class_type_infoE + 0x8, _ZTSSt10ctype_base

        SECTION `.rodata`:CONST:REORDER:NOROOT(2)
        SECTION_GROUP _ZTSSt10ctype_base
        DATA
// __absolute char const <Typeinfo name for std::ctype_base>[15]
_ZTSSt10ctype_base:
        DATA8
        DC8 "St10ctype_base"
        DC8 0

        SECTION `.rodata`:CONST:REORDER:NOROOT(2)
        SECTION_GROUP _ZTSN9OsWrapper7IThreadE
        DATA
// __absolute char const <Typeinfo name for OsWrapper::IThread>[21]
_ZTSN9OsWrapper7IThreadE:
        DATA8
        DC8 "N9OsWrapper7IThreadE"
        DATA
        DC8 0, 0, 0

        SECTION `.rodata`:CONST:REORDER:NOROOT(2)
        DATA
?_0:
        DATA8
        DC8 "buttonTask1"

        SECTION `.rodata`:CONST:REORDER:NOROOT(2)
        DATA
?_1:
        DATA8
        DC8 "led3task"
        DATA
        DC8 0, 0, 0
// C:\Users\User\Desktop\RtosWrapper\main.cpp
//    1 #include "Led1task.hpp"     // for Led1Task

        SECTION `.rodata`:CONST:REORDER:NOROOT(0)
        SECTION_GROUP _ZNSt6chrono12system_clock9is_steadyE
        DATA
// __absolute bool const std::chrono::system_clock::is_steady
_ZNSt6chrono12system_clock9is_steadyE:
        DATA8
        DC8 0

        SECTION `.rodata`:CONST:REORDER:NOROOT(0)
        SECTION_GROUP _ZNSt6chrono12system_clock12is_monotonicE
        DATA
// __absolute bool const std::chrono::system_clock::is_monotonic
_ZNSt6chrono12system_clock12is_monotonicE:
        DATA8
        DC8 0

        SECTION `.rodata`:CONST:REORDER:NOROOT(0)
        SECTION_GROUP _ZNSt6chrono12steady_clock9is_steadyE
        DATA
// __absolute bool const std::chrono::steady_clock::is_steady
_ZNSt6chrono12steady_clock9is_steadyE:
        DATA8
        DC8 1
//    2 #include "rccregisters.hpp" // for RCC

        SECTION `.rodata`:CONST:REORDER:NOROOT(2)
        SECTION_GROUP _ZZN8RegisterILj1073887280ELj32E13ReadWriteModeN3RCC14RCCAHB1ENRBaseEJ10FieldValueI26RCC_AHB1ENR_GPIOCEN_ValuesINS1_7AHB1ENRELj2ELj1ES0_S2_ES2_Lj1EvES3_I26RCC_AHB1ENR_GPIOAEN_ValuesIS5_Lj0ELj1ES0_S2_ES2_Lj1EvEEE3SetIS0_vEEvvE4mask
        DATA
// __absolute unsigned int const mask
_ZZN8RegisterILj1073887280ELj32E13ReadWriteModeN3RCC14RCCAHB1ENRBaseEJ10FieldValueI26RCC_AHB1ENR_GPIOCEN_ValuesINS1_7AHB1ENRELj2ELj1ES0_S2_ES2_Lj1EvES3_I26RCC_AHB1ENR_GPIOAEN_ValuesIS5_Lj0ELj1ES0_S2_ES2_Lj1EvEEE3SetIS0_vEEvvE4mask:
        DATA32
        DC32 5

        SECTION `.rodata`:CONST:REORDER:NOROOT(2)
        SECTION_GROUP _ZZN8RegisterILj1073874944ELj32E13ReadWriteModeN5GPIOC14GPIOCMODERBaseEJ10FieldValueI26GPIOC_MODER_MODER15_ValuesINS1_5MODERELj10ELj2ES0_S2_ES2_Lj1EvES3_IS4_IS5_Lj16ELj2ES0_S2_ES2_Lj1EvES3_IS4_IS5_Lj18ELj2ES0_S2_ES2_Lj1EvEEE3SetIS0_vEEvvE4mask
        DATA
// __absolute unsigned int const mask
_ZZN8RegisterILj1073874944ELj32E13ReadWriteModeN5GPIOC14GPIOCMODERBaseEJ10FieldValueI26GPIOC_MODER_MODER15_ValuesINS1_5MODERELj10ELj2ES0_S2_ES2_Lj1EvES3_IS4_IS5_Lj16ELj2ES0_S2_ES2_Lj1EvES3_IS4_IS5_Lj18ELj2ES0_S2_ES2_Lj1EvEEE3SetIS0_vEEvvE4mask:
        DATA32
        DC32 986'112

        SECTION `.rodata`:CONST:REORDER:NOROOT(2)
        SECTION_GROUP _ZZN8RegisterILj1073887280ELj32E13ReadWriteModeN3RCC14RCCAHB1ENRBaseEJ10FieldValueI26RCC_AHB1ENR_GPIOCEN_ValuesINS1_7AHB1ENRELj2ELj1ES0_S2_ES2_Lj1EvES3_I26RCC_AHB1ENR_GPIOAEN_ValuesIS5_Lj0ELj1ES0_S2_ES2_Lj1EvEEE3SetIS0_vEEvvE5value
        DATA
// __absolute unsigned int const value
_ZZN8RegisterILj1073887280ELj32E13ReadWriteModeN3RCC14RCCAHB1ENRBaseEJ10FieldValueI26RCC_AHB1ENR_GPIOCEN_ValuesINS1_7AHB1ENRELj2ELj1ES0_S2_ES2_Lj1EvES3_I26RCC_AHB1ENR_GPIOAEN_ValuesIS5_Lj0ELj1ES0_S2_ES2_Lj1EvEEE3SetIS0_vEEvvE5value:
        DATA32
        DC32 5

        SECTION `.rodata`:CONST:REORDER:NOROOT(2)
        SECTION_GROUP _ZZN8RegisterILj1073874944ELj32E13ReadWriteModeN5GPIOC14GPIOCMODERBaseEJ10FieldValueI26GPIOC_MODER_MODER15_ValuesINS1_5MODERELj10ELj2ES0_S2_ES2_Lj1EvES3_IS4_IS5_Lj16ELj2ES0_S2_ES2_Lj1EvES3_IS4_IS5_Lj18ELj2ES0_S2_ES2_Lj1EvEEE3SetIS0_vEEvvE5value
        DATA
// __absolute unsigned int const value
_ZZN8RegisterILj1073874944ELj32E13ReadWriteModeN5GPIOC14GPIOCMODERBaseEJ10FieldValueI26GPIOC_MODER_MODER15_ValuesINS1_5MODERELj10ELj2ES0_S2_ES2_Lj1EvES3_IS4_IS5_Lj16ELj2ES0_S2_ES2_Lj1EvES3_IS4_IS5_Lj18ELj2ES0_S2_ES2_Lj1EvEEE3SetIS0_vEEvvE5value:
        DATA32
        DC32 328'704
//    3 #include <gpioaregisters.hpp>  // for GPIOA
//    4 #include <gpiocregisters.hpp>  // for GPIOC
//    5 #include "rtos.hpp"
//    6 #include "Led2task.hpp"
//    7 #include "Led3task.hpp"
//    8 #include "Led.hpp"
//    9 #include "LEDTask.hpp"
//   10 #include "Event.hpp"
//   11 #include "ButtonTask.hpp"
//   12 #include "button.hpp"
//   13 

        SECTION `.data`:DATA:REORDER:NOROOT(2)
        DATA
//   14 std::uint32_t SystemCoreClock = 16'000'000U;
SystemCoreClock:
        DATA32
        DC32 16'000'000

        SECTION `.data`:DATA:REORDER:NOROOT(2)
        DATA
led3:
        DATA32
        DC32 _ZTV3LedI5GPIOCLi8EE + 0x8

        SECTION `.data`:DATA:REORDER:NOROOT(2)
        DATA
button:
        DATA32
        DC32 _ZTV6ButtonI5GPIOCLi13EE + 0x8

        SECTION `.text`:CODE:NOROOT(1)
          CFI Block cfiBlock0 Using cfiCommon0
          CFI Function __sti__routine
        THUMB
// static __intrinsic __interwork __vfp void __sti__routine()
__sti__routine:
        PUSH     {R2-R4,LR}
          CFI R14 Frame(CFA, -4)
          CFI R4 Frame(CFA, -8)
          CFI CFA R13+16
        LDR.N    R4,??DataTable1
        MOVS     R0,#+1
        STR      R0,[SP, #+0]
        LDR.N    R0,??DataTable1_1
        LDRD     R2,R3,[R0, #+0]
        MOVS     R0,R4
          CFI FunCall _ZN9OsWrapper5EventC1ENSt6chrono8durationIxSt5ratioILx1ELx1000EEEEj
        BL       _ZN9OsWrapper5EventC1ENSt6chrono8durationIxSt5ratioILx1ELx1000EEEEj
        LDR.N    R2,??DataTable1_2
        LDR.N    R1,??DataTable1_3
          CFI FunCall __aeabi_atexit
        BL       __aeabi_atexit
        STR      R4,[SP, #+0]
        LDR.N    R0,??DataTable1_4
        LDRD     R2,R3,[R0, #+0]
        LDR.N    R1,??DataTable1_5
        LDR.N    R0,??DataTable1_6
          CFI FunCall _ZN7LedTaskC1ER4ILedNSt6chrono8durationIxSt5ratioILx1ELx1000EEEERN9OsWrapper5EventE
        BL       _ZN7LedTaskC1ER4ILedNSt6chrono8durationIxSt5ratioILx1ELx1000EEEERN9OsWrapper5EventE
        MOVS     R2,R4
        LDR.N    R1,??DataTable1_7
        LDR.N    R0,??DataTable1_8
          CFI FunCall _ZN10ButtonTaskC1ER7IButtonRN9OsWrapper5EventE
        BL       _ZN10ButtonTaskC1ER7IButtonRN9OsWrapper5EventE
        POP      {R0,R1,R4,PC}    ;; return
          CFI EndBlock cfiBlock0
//   15 
//   16 
//   17 extern "C" {

        SECTION `.text`:CODE:NOROOT(1)
          CFI Block cfiBlock1 Using cfiCommon0
          CFI Function __low_level_init
        THUMB
//   18 int __low_level_init(void)
//   19 {
__low_level_init:
        PUSH     {R7,LR}
          CFI R14 Frame(CFA, -4)
          CFI CFA R13+8
//   20   //Switch on external 16 MHz oscillator
//   21   RCC::CR::HSION::On::Set();
          CFI FunCall _ZN14FieldValueBaseI19RCC_CR_HSION_ValuesIN3RCC2CRELj0ELj1E13ReadWriteModeNS1_9RCCCRBaseEES4_Lj1EE3SetIS3_vEEvv
        BL       _ZN14FieldValueBaseI19RCC_CR_HSION_ValuesIN3RCC2CRELj0ELj1E13ReadWriteModeNS1_9RCCCRBaseEES4_Lj1EE3SetIS3_vEEvv
//   22   while (RCC::CR::HSIRDY::NotReady::IsSet())
??__low_level_init_0:
          CFI FunCall _ZN14FieldValueBaseI20RCC_CR_HSIRDY_ValuesIN3RCC2CRELj1ELj1E8ReadModeNS1_9RCCCRBaseEES4_Lj0EE5IsSetIS3_vEEbv
        BL       _ZN14FieldValueBaseI20RCC_CR_HSIRDY_ValuesIN3RCC2CRELj1ELj1E8ReadModeNS1_9RCCCRBaseEES4_Lj0EE5IsSetIS3_vEEbv
        CMP      R0,#+0
        BNE.N    ??__low_level_init_0
//   23   {
//   24 
//   25   }
//   26   //Switch system clock on external oscillator
//   27   RCC::CFGR::SW::Hsi::Set();
          CFI FunCall _ZN14FieldValueBaseI18RCC_CFGR_SW_ValuesIN3RCC4CFGRELj0ELj2E13ReadWriteModeNS1_11RCCCFGRBaseEES4_Lj0EE3SetIS3_vEEvv
        BL       _ZN14FieldValueBaseI18RCC_CFGR_SW_ValuesIN3RCC4CFGRELj0ELj2E13ReadWriteModeNS1_11RCCCFGRBaseEES4_Lj0EE3SetIS3_vEEvv
//   28   while (!RCC::CFGR::SWS::Hsi::IsSet())
??__low_level_init_1:
          CFI FunCall _ZN14FieldValueBaseI19RCC_CFGR_SWS_ValuesIN3RCC4CFGRELj2ELj2E8ReadModeNS1_11RCCCFGRBaseEES4_Lj0EE5IsSetIS3_vEEbv
        BL       _ZN14FieldValueBaseI19RCC_CFGR_SWS_ValuesIN3RCC4CFGRELj2ELj2E8ReadModeNS1_11RCCCFGRBaseEES4_Lj0EE5IsSetIS3_vEEbv
        CMP      R0,#+0
        BEQ.N    ??__low_level_init_1
//   29  {
//   30 
//   31   }
//   32   //Switch on clock on PortA and PortC
//   33   RCC::AHB1ENRPack<
//   34       RCC::AHB1ENR::GPIOCEN::Enable,
//   35       RCC::AHB1ENR::GPIOAEN::Enable
//   36   >::Set();
          CFI FunCall _ZN8RegisterILj1073887280ELj32E13ReadWriteModeN3RCC14RCCAHB1ENRBaseEJ10FieldValueI26RCC_AHB1ENR_GPIOCEN_ValuesINS1_7AHB1ENRELj2ELj1ES0_S2_ES2_Lj1EvES3_I26RCC_AHB1ENR_GPIOAEN_ValuesIS5_Lj0ELj1ES0_S2_ES2_Lj1EvEEE3SetIS0_vEEvv
        BL       _ZN8RegisterILj1073887280ELj32E13ReadWriteModeN3RCC14RCCAHB1ENRBaseEJ10FieldValueI26RCC_AHB1ENR_GPIOCEN_ValuesINS1_7AHB1ENRELj2ELj1ES0_S2_ES2_Lj1EvES3_I26RCC_AHB1ENR_GPIOAEN_ValuesIS5_Lj0ELj1ES0_S2_ES2_Lj1EvEEE3SetIS0_vEEvv
//   37 
//   38   RCC::APB2ENR::SYSCFGEN::Enable::Set();//
          CFI FunCall _ZN14FieldValueBaseI25RCC_AHB1ENR_DMA2EN_ValuesIN3RCC7APB2ENRELj14ELj1E13ReadWriteModeNS1_14RCCAPB2ENRBaseEES4_Lj1EE3SetIS3_vEEvv
        BL       _ZN14FieldValueBaseI25RCC_AHB1ENR_DMA2EN_ValuesIN3RCC7APB2ENRELj14ELj1E13ReadWriteModeNS1_14RCCAPB2ENRBaseEES4_Lj1EE3SetIS3_vEEvv
//   39 
//   40   //LED1 on PortA.5, set PortA.5 as output
//   41   GPIOA::MODER::MODER5::Output::Set();
          CFI FunCall _ZN14FieldValueBaseI26GPIOA_MODER_MODER15_ValuesIN5GPIOA5MODERELj10ELj2E13ReadWriteModeNS1_14GPIOAMODERBaseEES4_Lj1EE3SetIS3_vEEvv
        BL       _ZN14FieldValueBaseI26GPIOA_MODER_MODER15_ValuesIN5GPIOA5MODERELj10ELj2E13ReadWriteModeNS1_14GPIOAMODERBaseEES4_Lj1EE3SetIS3_vEEvv
//   42 
//   43   /* LED2 on PortC.9, LED3 on PortC.8, LED4 on PortC.5 so set PortC.5,8,9 as output */
//   44   GPIOC::MODERPack<
//   45       GPIOC::MODER::MODER5::Output,
//   46       GPIOC::MODER::MODER8::Output,
//   47       GPIOC::MODER::MODER9::Output
//   48   >::Set();
          CFI FunCall _ZN8RegisterILj1073874944ELj32E13ReadWriteModeN5GPIOC14GPIOCMODERBaseEJ10FieldValueI26GPIOC_MODER_MODER15_ValuesINS1_5MODERELj10ELj2ES0_S2_ES2_Lj1EvES3_IS4_IS5_Lj16ELj2ES0_S2_ES2_Lj1EvES3_IS4_IS5_Lj18ELj2ES0_S2_ES2_Lj1EvEEE3SetIS0_vEEvv
        BL       _ZN8RegisterILj1073874944ELj32E13ReadWriteModeN5GPIOC14GPIOCMODERBaseEJ10FieldValueI26GPIOC_MODER_MODER15_ValuesINS1_5MODERELj10ELj2ES0_S2_ES2_Lj1EvES3_IS4_IS5_Lj16ELj2ES0_S2_ES2_Lj1EvES3_IS4_IS5_Lj18ELj2ES0_S2_ES2_Lj1EvEEE3SetIS0_vEEvv
//   49 
//   50   return 1;
        MOVS     R0,#+1
        POP      {R1,PC}          ;; return
//   51 }
          CFI EndBlock cfiBlock1
//   52 };
//   53 
//   54 
//   55 Led<GPIOC, 8> led3;
//   56 Button<GPIOC, 13> button;
//   57 

        SECTION `.bss`:DATA:REORDER:NOROOT(2)
        DATA
//   58 Event event(1000ms, 1);
event:
        DS8 36

        SECTION `.rodata`:CONST:REORDER:NOROOT(3)
        DATA
?_2:
        DATA64
        DC64 1'000
//   59 
//   60 

        SECTION `.bss`:DATA:REORDER:NOROOT(3)
        DATA
//   61 LedTask led3task(led3, 500ms, event);
led3task:
        DS8 624

        SECTION `.rodata`:CONST:REORDER:NOROOT(3)
        DATA
?_3:
        DATA64
        DC64 500

        SECTION `.bss`:DATA:REORDER:NOROOT(2)
        DATA
//   62 ButtonTask buttonTask(button, event);
buttonTask:
        DS8 612
//   63 
//   64 

        SECTION `.text`:CODE:NOROOT(1)
          CFI Block cfiBlock2 Using cfiCommon0
          CFI Function main
        THUMB
//   65 int main()
//   66 {
main:
        PUSH     {R7,LR}
          CFI R14 Frame(CFA, -4)
          CFI CFA R13+8
//   67   
//   68 //  led3.Toggle();
//   69   Rtos::CreateThread(buttonTask, "buttonTask1", ThreadPriority::normal);
        MOVS     R2,#+30
        LDR.N    R1,??DataTable1_9
        LDR.N    R0,??DataTable1_8
          CFI FunCall _ZN9OsWrapper4Rtos12CreateThreadI10ButtonTaskEEvRT_PKcNS_14ThreadPriorityE
        BL       _ZN9OsWrapper4Rtos12CreateThreadI10ButtonTaskEEvRT_PKcNS_14ThreadPriorityE
//   70   Rtos::CreateThread(led3task, "led3task", ThreadPriority::normal);
        MOVS     R2,#+30
        LDR.N    R1,??DataTable1_10
        LDR.N    R0,??DataTable1_6
          CFI FunCall _ZN9OsWrapper4Rtos12CreateThreadI7LedTaskEEvRT_PKcNS_14ThreadPriorityE
        BL       _ZN9OsWrapper4Rtos12CreateThreadI7LedTaskEEvRT_PKcNS_14ThreadPriorityE
//   71   
//   72 //  Rtos::CreateThread(led3Task, "led3Task", ThreadPriority::normal);
//   73   Rtos::Start();
          CFI FunCall _ZN9OsWrapper4Rtos5StartEv
        BL       _ZN9OsWrapper4Rtos5StartEv
//   74   return 0;
        MOVS     R0,#+0
        POP      {R1,PC}          ;; return
//   75 }
          CFI EndBlock cfiBlock2

        SECTION `.text`:CODE:NOROOT(2)
        SECTION_TYPE SHT_PROGBITS, 0
        DATA
??DataTable1:
        DATA32
        DC32     event

        SECTION `.text`:CODE:NOROOT(2)
        SECTION_TYPE SHT_PROGBITS, 0
        DATA
??DataTable1_1:
        DATA32
        DC32     ?_2

        SECTION `.text`:CODE:NOROOT(2)
        SECTION_TYPE SHT_PROGBITS, 0
        DATA
??DataTable1_2:
        DATA32
        DC32     __dso_handle

        SECTION `.text`:CODE:NOROOT(2)
        SECTION_TYPE SHT_PROGBITS, 0
        DATA
??DataTable1_3:
        DATA32
        DC32     _ZN9OsWrapper5EventD1Ev

        SECTION `.text`:CODE:NOROOT(2)
        SECTION_TYPE SHT_PROGBITS, 0
        DATA
??DataTable1_4:
        DATA32
        DC32     ?_3

        SECTION `.text`:CODE:NOROOT(2)
        SECTION_TYPE SHT_PROGBITS, 0
        DATA
??DataTable1_5:
        DATA32
        DC32     led3

        SECTION `.text`:CODE:NOROOT(2)
        SECTION_TYPE SHT_PROGBITS, 0
        DATA
??DataTable1_6:
        DATA32
        DC32     led3task

        SECTION `.text`:CODE:NOROOT(2)
        SECTION_TYPE SHT_PROGBITS, 0
        DATA
??DataTable1_7:
        DATA32
        DC32     button

        SECTION `.text`:CODE:NOROOT(2)
        SECTION_TYPE SHT_PROGBITS, 0
        DATA
??DataTable1_8:
        DATA32
        DC32     buttonTask

        SECTION `.text`:CODE:NOROOT(2)
        SECTION_TYPE SHT_PROGBITS, 0
        DATA
??DataTable1_9:
        DATA32
        DC32     ?_0

        SECTION `.text`:CODE:NOROOT(2)
        SECTION_TYPE SHT_PROGBITS, 0
        DATA
??DataTable1_10:
        DATA32
        DC32     ?_1

        SECTION `.text`:CODE:REORDER:NOROOT(1)
        SECTION_GROUP _ZNSt5arrayIjLj128EE4dataEv
          CFI Block cfiBlock3 Using cfiCommon0
          CFI Function _ZNSt5arrayIjLj128EE4dataEv
          CFI NoCalls
        THUMB
// __interwork __vfp uint32_t *std::array<uint32_t, 128U>::data()
_ZNSt5arrayIjLj128EE4dataEv:
        BX       LR               ;; return
          CFI EndBlock cfiBlock3

        SECTION `.text`:CODE:REORDER:NOROOT(1)
        SECTION_GROUP _ZNSt6chrono13duration_castINS_8durationIjSt5ratioILx10ELx1000EEEExS2_ILx1ELx1000EEEENSt9enable_ifIXsr3std6chrono12_Is_durationIT_EE5valueES7_E4typeERKNS1_IT0_T1_EE
          CFI Block cfiBlock4 Using cfiCommon0
          CFI Function _ZNSt6chrono13duration_castINS_8durationIjSt5ratioILx10ELx1000EEEExS2_ILx1ELx1000EEEENSt9enable_ifIXsr3std6chrono12_Is_durationIT_EE5valueES7_E4typeERKNS1_IT0_T1_EE
        THUMB
// __interwork __vfp OsWrapper::TicksPerSecond std::chrono::duration_cast<OsWrapper::TicksPerSecond, __int64_t, std::milli>(std::chrono::duration<__int64_t, std::milli> const &)
_ZNSt6chrono13duration_castINS_8durationIjSt5ratioILx10ELx1000EEEExS2_ILx1ELx1000EEEENSt9enable_ifIXsr3std6chrono12_Is_durationIT_EE5valueES7_E4typeERKNS1_IT0_T1_EE:
        PUSH     {R5-R7,LR}
          CFI R14 Frame(CFA, -4)
          CFI CFA R13+16
          CFI FunCall _ZNKSt6chrono8durationIxSt5ratioILx1ELx1000EEE5countEv
        BL       _ZNKSt6chrono8durationIxSt5ratioILx1ELx1000EEE5countEv
        MOVS     R2,#+10
        MOVS     R3,#+0
          CFI FunCall __aeabi_ldivmod
        BL       __aeabi_ldivmod
        STR      R0,[SP, #+4]
        ADD      R1,SP,#+4
        MOV      R0,SP
          CFI FunCall _ZNSt6chrono8durationIjSt5ratioILx10ELx1000EEEC1IjvEERKT_
        BL       _ZNSt6chrono8durationIjSt5ratioILx10ELx1000EEEC1IjvEERKT_
        LDR      R0,[SP, #+0]
        POP      {R1-R3,PC}       ;; return
          CFI EndBlock cfiBlock4

        SECTION `.text`:CODE:REORDER:NOROOT(1)
        SECTION_GROUP _ZNSt6chrono8durationIjSt5ratioILx10ELx1000EEEC1IjvEERKT_
          CFI Block cfiBlock5 Using cfiCommon0
          CFI Function _ZNSt6chrono8durationIjSt5ratioILx10ELx1000EEEC1IjvEERKT_
          CFI NoCalls
        THUMB
// __code __interwork __vfp std::chrono::duration<uint32_t, std::ratio<10LL, 1000LL>>::duration<uint32_t, void>(uint32_t const &)
_ZNSt6chrono8durationIjSt5ratioILx10ELx1000EEEC1IjvEERKT_:
        LDR      R1,[R1, #+0]
        STR      R1,[R0, #+0]
        BX       LR               ;; return
          CFI EndBlock cfiBlock5

        SECTION `.text`:CODE:REORDER:NOROOT(1)
        SECTION_GROUP _ZNKSt6chrono8durationIxSt5ratioILx1ELx1000EEE5countEv
          CFI Block cfiBlock6 Using cfiCommon0
          CFI Function _ZNKSt6chrono8durationIxSt5ratioILx1ELx1000EEE5countEv
          CFI NoCalls
        THUMB
// __interwork __vfp __int64_t std::chrono::duration<__int64_t, std::milli>::count() const
_ZNKSt6chrono8durationIxSt5ratioILx1ELx1000EEE5countEv:
        LDRD     R0,R1,[R0, #+0]
        BX       LR               ;; return
          CFI EndBlock cfiBlock6

        SECTION `.text`:CODE:REORDER:NOROOT(1)
        SECTION_GROUP _ZNKSt6chrono8durationIjSt5ratioILx10ELx1000EEE5countEv
          CFI Block cfiBlock7 Using cfiCommon0
          CFI Function _ZNKSt6chrono8durationIjSt5ratioILx10ELx1000EEE5countEv
          CFI NoCalls
        THUMB
// __interwork __vfp uint32_t std::chrono::duration<uint32_t, std::ratio<10LL, 1000LL>>::count() const
_ZNKSt6chrono8durationIjSt5ratioILx10ELx1000EEE5countEv:
        LDR      R0,[R0, #+0]
        BX       LR               ;; return
          CFI EndBlock cfiBlock7

        SECTION `.text`:CODE:REORDER:NOROOT(2)
        SECTION_GROUP _ZN9OsWrapper11RtosWrapper13wCreateThreadINS_4RtosE10ButtonTaskEEvRT0_PKcNS_14ThreadPriorityEtPj
          CFI Block cfiBlock8 Using cfiCommon0
          CFI Function _ZN9OsWrapper11RtosWrapper13wCreateThreadINS_4RtosE10ButtonTaskEEvRT0_PKcNS_14ThreadPriorityEtPj
        THUMB
// __interwork __vfp void OsWrapper::RtosWrapper::wCreateThread<OsWrapper::Rtos, ButtonTask>(ButtonTask &, char const *, OsWrapper::ThreadPriority, uint16_t, uint32_t *)
_ZN9OsWrapper11RtosWrapper13wCreateThreadINS_4RtosE10ButtonTaskEEvRT0_PKcNS_14ThreadPriorityEtPj:
        PUSH     {R1-R5,LR}
          CFI R14 Frame(CFA, -4)
          CFI R5 Frame(CFA, -8)
          CFI R4 Frame(CFA, -12)
          CFI CFA R13+24
        MOVS     R5,R0
        MOVS     R4,R3
        LDR      R0,[SP, #+24]
        CMP      R0,#+0
        BEQ.N    ??wCreateThread_2
        ADDS     R3,R5,#+4
        STR      R3,[SP, #+8]
        STR      R0,[SP, #+4]
        UXTB     R2,R2            ;; ZeroExt  R2,R2,#+24,#+24
        STR      R2,[SP, #+0]
        MOVS     R3,R5
        UXTH     R4,R4            ;; ZeroExt  R4,R4,#+16,#+16
        MOVS     R2,R4
        LDR.N    R0,??wCreateThread_0
          CFI FunCall xTaskCreateStatic
        BL       xTaskCreateStatic
        STR      R0,[R5, #+84]
??wCreateThread_2:
        POP      {R0-R2,R4,R5,PC}  ;; return
        Nop      
        DATA
??wCreateThread_0:
        DATA32
        DC32     _ZN9OsWrapper4Rtos3RunEPv
          CFI EndBlock cfiBlock8

        SECTION `.text`:CODE:REORDER:NOROOT(2)
        SECTION_GROUP _ZN9OsWrapper11RtosWrapper13wCreateThreadINS_4RtosE7LedTaskEEvRT0_PKcNS_14ThreadPriorityEtPj
          CFI Block cfiBlock9 Using cfiCommon0
          CFI Function _ZN9OsWrapper11RtosWrapper13wCreateThreadINS_4RtosE7LedTaskEEvRT0_PKcNS_14ThreadPriorityEtPj
        THUMB
// __interwork __vfp void OsWrapper::RtosWrapper::wCreateThread<OsWrapper::Rtos, LedTask>(LedTask &, char const *, OsWrapper::ThreadPriority, uint16_t, uint32_t *)
_ZN9OsWrapper11RtosWrapper13wCreateThreadINS_4RtosE7LedTaskEEvRT0_PKcNS_14ThreadPriorityEtPj:
        PUSH     {R1-R5,LR}
          CFI R14 Frame(CFA, -4)
          CFI R5 Frame(CFA, -8)
          CFI R4 Frame(CFA, -12)
          CFI CFA R13+24
        MOVS     R5,R0
        MOVS     R4,R3
        LDR      R0,[SP, #+24]
        CMP      R0,#+0
        BEQ.N    ??wCreateThread_3
        ADDS     R3,R5,#+4
        STR      R3,[SP, #+8]
        STR      R0,[SP, #+4]
        UXTB     R2,R2            ;; ZeroExt  R2,R2,#+24,#+24
        STR      R2,[SP, #+0]
        MOVS     R3,R5
        UXTH     R4,R4            ;; ZeroExt  R4,R4,#+16,#+16
        MOVS     R2,R4
        LDR.N    R0,??wCreateThread_1
          CFI FunCall xTaskCreateStatic
        BL       xTaskCreateStatic
        STR      R0,[R5, #+84]
??wCreateThread_3:
        POP      {R0-R2,R4,R5,PC}  ;; return
        Nop      
        DATA
??wCreateThread_1:
        DATA32
        DC32     _ZN9OsWrapper4Rtos3RunEPv
          CFI EndBlock cfiBlock9

        SECTION `.text`:CODE:REORDER:NOROOT(1)
        SECTION_GROUP _ZN9OsWrapper11RtosWrapper6wStartEv
          CFI Block cfiBlock10 Using cfiCommon0
          CFI Function _ZN9OsWrapper11RtosWrapper6wStartEv
        THUMB
// __interwork __vfp void OsWrapper::RtosWrapper::wStart()
_ZN9OsWrapper11RtosWrapper6wStartEv:
        PUSH     {R7,LR}
          CFI R14 Frame(CFA, -4)
          CFI CFA R13+8
          CFI FunCall vTaskStartScheduler
        BL       vTaskStartScheduler
        POP      {R0,PC}          ;; return
          CFI EndBlock cfiBlock10

        SECTION `.text`:CODE:REORDER:NOROOT(1)
        SECTION_GROUP _ZN9OsWrapper11RtosWrapper12wCreateEventER19xSTATIC_EVENT_GROUP
          CFI Block cfiBlock11 Using cfiCommon0
          CFI Function _ZN9OsWrapper11RtosWrapper12wCreateEventER19xSTATIC_EVENT_GROUP
        THUMB
// __interwork __vfp void * OsWrapper::RtosWrapper::wCreateEvent(OsWrapper::tEvent &)
_ZN9OsWrapper11RtosWrapper12wCreateEventER19xSTATIC_EVENT_GROUP:
        PUSH     {R7,LR}
          CFI R14 Frame(CFA, -4)
          CFI CFA R13+8
          CFI FunCall xEventGroupCreateStatic
        BL       xEventGroupCreateStatic
        POP      {R1,PC}          ;; return
          CFI EndBlock cfiBlock11

        SECTION `.text`:CODE:REORDER:NOROOT(1)
        SECTION_GROUP _ZN9OsWrapper11RtosWrapper12wDeleteEventERPv
          CFI Block cfiBlock12 Using cfiCommon0
          CFI Function _ZN9OsWrapper11RtosWrapper12wDeleteEventERPv
        THUMB
// __interwork __vfp void OsWrapper::RtosWrapper::wDeleteEvent(void * &)
_ZN9OsWrapper11RtosWrapper12wDeleteEventERPv:
        PUSH     {R7,LR}
          CFI R14 Frame(CFA, -4)
          CFI CFA R13+8
        LDR      R0,[R0, #+0]
          CFI FunCall vEventGroupDelete
        BL       vEventGroupDelete
        POP      {R0,PC}          ;; return
          CFI EndBlock cfiBlock12

        SECTION `.text`:CODE:REORDER:NOROOT(1)
        SECTION_GROUP _ZN9OsWrapper11RtosWrapper9wGetTicksEv
          CFI Block cfiBlock13 Using cfiCommon0
          CFI Function _ZN9OsWrapper11RtosWrapper9wGetTicksEv
        THUMB
// __interwork __vfp uint32_t OsWrapper::RtosWrapper::wGetTicks()
_ZN9OsWrapper11RtosWrapper9wGetTicksEv:
        PUSH     {R7,LR}
          CFI R14 Frame(CFA, -4)
          CFI CFA R13+8
          CFI FunCall xTaskGetTickCount
        BL       xTaskGetTickCount
        POP      {R1,PC}          ;; return
          CFI EndBlock cfiBlock13

        SECTION `.text`:CODE:REORDER:NOROOT(1)
        SECTION_GROUP _ZN9OsWrapper7IThread3RunEv
          CFI Block cfiBlock14 Using cfiCommon0
          CFI Function _ZN9OsWrapper7IThread3RunEv
        THUMB
// __interwork __vfp void OsWrapper::IThread::Run()
_ZN9OsWrapper7IThread3RunEv:
        PUSH     {R4,LR}
          CFI R14 Frame(CFA, -4)
          CFI R4 Frame(CFA, -8)
          CFI CFA R13+8
        MOVS     R4,R0
          CFI FunCall _ZN9OsWrapper11RtosWrapper9wGetTicksEv
        BL       _ZN9OsWrapper11RtosWrapper9wGetTicksEv
        STR      R0,[R4, #+88]
        MOVS     R0,R4
        LDR      R1,[R4, #+0]
        LDR      R1,[R1, #+0]
          CFI FunCall
        BLX      R1
        POP      {R4,PC}          ;; return
          CFI EndBlock cfiBlock14

        SECTION `.text`:CODE:REORDER:NOROOT(2)
        SECTION_GROUP _ZN14FieldValueBaseI19RCC_CR_HSION_ValuesIN3RCC2CRELj0ELj1E13ReadWriteModeNS1_9RCCCRBaseEES4_Lj1EE3SetIS3_vEEvv
          CFI Block cfiBlock15 Using cfiCommon0
          CFI Function _ZN14FieldValueBaseI19RCC_CR_HSION_ValuesIN3RCC2CRELj0ELj1E13ReadWriteModeNS1_9RCCCRBaseEES4_Lj1EE3SetIS3_vEEvv
          CFI NoCalls
        THUMB
// __interwork __vfp void FieldValueBase<RCC_CR_HSION_Values<RCC::CR, 0U, 1U, ReadWriteMode, RCC::RCCCRBase>, RCC::RCCCRBase, 1U>::Set<ReadWriteMode, void>()
_ZN14FieldValueBaseI19RCC_CR_HSION_ValuesIN3RCC2CRELj0ELj1E13ReadWriteModeNS1_9RCCCRBaseEES4_Lj1EE3SetIS3_vEEvv:
        LDR.N    R1,??Set_0       ;; 0x40023800
        LDR      R0,[R1, #+0]
        ORRS     R0,R0,#0x1
        STR      R0,[R1, #+0]
        BX       LR               ;; return
        DATA
??Set_0:
        DATA32
        DC32     0x40023800
          CFI EndBlock cfiBlock15

        SECTION `.text`:CODE:REORDER:NOROOT(2)
        SECTION_GROUP _ZN14FieldValueBaseI18RCC_CFGR_SW_ValuesIN3RCC4CFGRELj0ELj2E13ReadWriteModeNS1_11RCCCFGRBaseEES4_Lj0EE3SetIS3_vEEvv
          CFI Block cfiBlock16 Using cfiCommon0
          CFI Function _ZN14FieldValueBaseI18RCC_CFGR_SW_ValuesIN3RCC4CFGRELj0ELj2E13ReadWriteModeNS1_11RCCCFGRBaseEES4_Lj0EE3SetIS3_vEEvv
          CFI NoCalls
        THUMB
// __interwork __vfp void FieldValueBase<RCC_CFGR_SW_Values<RCC::CFGR, 0U, 2U, ReadWriteMode, RCC::RCCCFGRBase>, RCC::RCCCFGRBase, 0U>::Set<ReadWriteMode, void>()
_ZN14FieldValueBaseI18RCC_CFGR_SW_ValuesIN3RCC4CFGRELj0ELj2E13ReadWriteModeNS1_11RCCCFGRBaseEES4_Lj0EE3SetIS3_vEEvv:
        LDR.N    R1,??Set_1       ;; 0x40023808
        LDR      R0,[R1, #+0]
        LSRS     R0,R0,#+2
        LSLS     R0,R0,#+2
        STR      R0,[R1, #+0]
        BX       LR               ;; return
        DATA
??Set_1:
        DATA32
        DC32     0x40023808
          CFI EndBlock cfiBlock16

        SECTION `.text`:CODE:REORDER:NOROOT(2)
        SECTION_GROUP _ZN14FieldValueBaseI25RCC_AHB1ENR_DMA2EN_ValuesIN3RCC7APB2ENRELj14ELj1E13ReadWriteModeNS1_14RCCAPB2ENRBaseEES4_Lj1EE3SetIS3_vEEvv
          CFI Block cfiBlock17 Using cfiCommon0
          CFI Function _ZN14FieldValueBaseI25RCC_AHB1ENR_DMA2EN_ValuesIN3RCC7APB2ENRELj14ELj1E13ReadWriteModeNS1_14RCCAPB2ENRBaseEES4_Lj1EE3SetIS3_vEEvv
          CFI NoCalls
        THUMB
// __interwork __vfp void FieldValueBase<RCC_AHB1ENR_DMA2EN_Values<RCC::APB2ENR, 14U, 1U, ReadWriteMode, RCC::RCCAPB2ENRBase>, RCC::RCCAPB2ENRBase, 1U>::Set<ReadWriteMode, void>()
_ZN14FieldValueBaseI25RCC_AHB1ENR_DMA2EN_ValuesIN3RCC7APB2ENRELj14ELj1E13ReadWriteModeNS1_14RCCAPB2ENRBaseEES4_Lj1EE3SetIS3_vEEvv:
        LDR.N    R1,??Set_2       ;; 0x40023844
        LDR      R0,[R1, #+0]
        ORRS     R0,R0,#0x4000
        STR      R0,[R1, #+0]
        BX       LR               ;; return
        DATA
??Set_2:
        DATA32
        DC32     0x40023844
          CFI EndBlock cfiBlock17

        SECTION `.text`:CODE:REORDER:NOROOT(2)
        SECTION_GROUP _ZN14FieldValueBaseI26GPIOA_MODER_MODER15_ValuesIN5GPIOA5MODERELj10ELj2E13ReadWriteModeNS1_14GPIOAMODERBaseEES4_Lj1EE3SetIS3_vEEvv
          CFI Block cfiBlock18 Using cfiCommon0
          CFI Function _ZN14FieldValueBaseI26GPIOA_MODER_MODER15_ValuesIN5GPIOA5MODERELj10ELj2E13ReadWriteModeNS1_14GPIOAMODERBaseEES4_Lj1EE3SetIS3_vEEvv
          CFI NoCalls
        THUMB
// __interwork __vfp void FieldValueBase<GPIOA_MODER_MODER15_Values<GPIOA::MODER, 10U, 2U, ReadWriteMode, GPIOA::GPIOAMODERBase>, GPIOA::GPIOAMODERBase, 1U>::Set<ReadWriteMode, void>()
_ZN14FieldValueBaseI26GPIOA_MODER_MODER15_ValuesIN5GPIOA5MODERELj10ELj2E13ReadWriteModeNS1_14GPIOAMODERBaseEES4_Lj1EE3SetIS3_vEEvv:
        LDR.N    R1,??Set_3       ;; 0x40020000
        LDR      R0,[R1, #+0]
        BICS     R0,R0,#0xC00
        ORRS     R0,R0,#0x400
        STR      R0,[R1, #+0]
        BX       LR               ;; return
        DATA
??Set_3:
        DATA32
        DC32     0x40020000
          CFI EndBlock cfiBlock18

        SECTION `.text`:CODE:REORDER:NOROOT(2)
        SECTION_GROUP _ZN14FieldValueBaseI20RCC_CR_HSIRDY_ValuesIN3RCC2CRELj1ELj1E8ReadModeNS1_9RCCCRBaseEES4_Lj0EE5IsSetIS3_vEEbv
          CFI Block cfiBlock19 Using cfiCommon0
          CFI Function _ZN14FieldValueBaseI20RCC_CR_HSIRDY_ValuesIN3RCC2CRELj1ELj1E8ReadModeNS1_9RCCCRBaseEES4_Lj0EE5IsSetIS3_vEEbv
          CFI NoCalls
        THUMB
// __interwork __vfp bool FieldValueBase<RCC_CR_HSIRDY_Values<RCC::CR, 1U, 1U, ReadMode, RCC::RCCCRBase>, RCC::RCCCRBase, 0U>::IsSet<ReadMode, void>()
_ZN14FieldValueBaseI20RCC_CR_HSIRDY_ValuesIN3RCC2CRELj1ELj1E8ReadModeNS1_9RCCCRBaseEES4_Lj0EE5IsSetIS3_vEEbv:
        LDR.N    R0,??IsSet_0     ;; 0x40023800
        LDR      R0,[R0, #+0]
        LSRS     R0,R0,#+1
        ANDS     R0,R0,#0x1
        EORS     R0,R0,#0x1
        UXTB     R0,R0            ;; ZeroExt  R0,R0,#+24,#+24
        BX       LR               ;; return
        Nop      
        DATA
??IsSet_0:
        DATA32
        DC32     0x40023800
          CFI EndBlock cfiBlock19

        SECTION `.text`:CODE:REORDER:NOROOT(2)
        SECTION_GROUP _ZN14FieldValueBaseI19RCC_CFGR_SWS_ValuesIN3RCC4CFGRELj2ELj2E8ReadModeNS1_11RCCCFGRBaseEES4_Lj0EE5IsSetIS3_vEEbv
          CFI Block cfiBlock20 Using cfiCommon0
          CFI Function _ZN14FieldValueBaseI19RCC_CFGR_SWS_ValuesIN3RCC4CFGRELj2ELj2E8ReadModeNS1_11RCCCFGRBaseEES4_Lj0EE5IsSetIS3_vEEbv
          CFI NoCalls
        THUMB
// __interwork __vfp bool FieldValueBase<RCC_CFGR_SWS_Values<RCC::CFGR, 2U, 2U, ReadMode, RCC::RCCCFGRBase>, RCC::RCCCFGRBase, 0U>::IsSet<ReadMode, void>()
_ZN14FieldValueBaseI19RCC_CFGR_SWS_ValuesIN3RCC4CFGRELj2ELj2E8ReadModeNS1_11RCCCFGRBaseEES4_Lj0EE5IsSetIS3_vEEbv:
        LDR.N    R0,??IsSet_1     ;; 0x40023808
        LDR      R0,[R0, #+0]
        TST      R0,#0xC
        BNE.N    ??IsSet_2
        MOVS     R0,#+1
        B.N      ??IsSet_3
??IsSet_2:
        MOVS     R0,#+0
??IsSet_3:
        UXTB     R0,R0            ;; ZeroExt  R0,R0,#+24,#+24
        BX       LR               ;; return
        DATA
??IsSet_1:
        DATA32
        DC32     0x40023808
          CFI EndBlock cfiBlock20

        SECTION `.text`:CODE:REORDER:NOROOT(2)
        SECTION_GROUP _ZN12RegisterBaseILj1073874964ELj32E13ReadWriteModeE6ToggleIS0_vEEvj
          CFI Block cfiBlock21 Using cfiCommon0
          CFI Function _ZN12RegisterBaseILj1073874964ELj32E13ReadWriteModeE6ToggleIS0_vEEvj
          CFI NoCalls
        THUMB
// __interwork __vfp void RegisterBase<1073874964U, 32U, ReadWriteMode>::Toggle<ReadWriteMode, void>(uint32_t)
_ZN12RegisterBaseILj1073874964ELj32E13ReadWriteModeE6ToggleIS0_vEEvj:
        LDR.N    R1,??Toggle_0    ;; 0x40020814
        LDR      R2,[R1, #+0]
        EORS     R0,R0,R2
        STR      R0,[R1, #+0]
        BX       LR               ;; return
        Nop      
        DATA
??Toggle_0:
        DATA32
        DC32     0x40020814
          CFI EndBlock cfiBlock21

        SECTION `.text`:CODE:REORDER:NOROOT(2)
        SECTION_GROUP _ZN12RegisterBaseILj1073874960ELj32E8ReadModeE3GetIS0_vEEjv
          CFI Block cfiBlock22 Using cfiCommon0
          CFI Function _ZN12RegisterBaseILj1073874960ELj32E8ReadModeE3GetIS0_vEEjv
          CFI NoCalls
        THUMB
// __interwork __vfp uint32_t RegisterBase<1073874960U, 32U, ReadMode>::Get<ReadMode, void>()
_ZN12RegisterBaseILj1073874960ELj32E8ReadModeE3GetIS0_vEEjv:
        LDR.N    R0,??Get_0       ;; 0x40020810
        LDR      R0,[R0, #+0]
        BX       LR               ;; return
        Nop      
        DATA
??Get_0:
        DATA32
        DC32     0x40020810
          CFI EndBlock cfiBlock22

        SECTION `.text`:CODE:REORDER:NOROOT(2)
        SECTION_GROUP _ZN8RegisterILj1073887280ELj32E13ReadWriteModeN3RCC14RCCAHB1ENRBaseEJ10FieldValueI26RCC_AHB1ENR_GPIOCEN_ValuesINS1_7AHB1ENRELj2ELj1ES0_S2_ES2_Lj1EvES3_I26RCC_AHB1ENR_GPIOAEN_ValuesIS5_Lj0ELj1ES0_S2_ES2_Lj1EvEEE3SetIS0_vEEvv
          CFI Block cfiBlock23 Using cfiCommon0
          CFI Function _ZN8RegisterILj1073887280ELj32E13ReadWriteModeN3RCC14RCCAHB1ENRBaseEJ10FieldValueI26RCC_AHB1ENR_GPIOCEN_ValuesINS1_7AHB1ENRELj2ELj1ES0_S2_ES2_Lj1EvES3_I26RCC_AHB1ENR_GPIOAEN_ValuesIS5_Lj0ELj1ES0_S2_ES2_Lj1EvEEE3SetIS0_vEEvv
          CFI NoCalls
        THUMB
// __interwork __vfp void Register<1073887280U, 32U, ReadWriteMode, RCC::RCCAHB1ENRBase, RCC_AHB1ENR_GPIOCEN_Values<RCC::AHB1ENR, 2U, 1U, ReadWriteMode, RCC::RCCAHB1ENRBase>::Enable, RCC_AHB1ENR_GPIOAEN_Values<RCC::AHB1ENR, 0U, 1U, ReadWriteMode, RCC::RCCAHB1ENRBase>::Enable>::Set<ReadWriteMode, void>()
_ZN8RegisterILj1073887280ELj32E13ReadWriteModeN3RCC14RCCAHB1ENRBaseEJ10FieldValueI26RCC_AHB1ENR_GPIOCEN_ValuesINS1_7AHB1ENRELj2ELj1ES0_S2_ES2_Lj1EvES3_I26RCC_AHB1ENR_GPIOAEN_ValuesIS5_Lj0ELj1ES0_S2_ES2_Lj1EvEEE3SetIS0_vEEvv:
        LDR.N    R1,??Set_4       ;; 0x40023830
        LDR      R0,[R1, #+0]
        BICS     R0,R0,#0x5
        ORRS     R0,R0,#0x5
        STR      R0,[R1, #+0]
        BX       LR               ;; return
        DATA
??Set_4:
        DATA32
        DC32     0x40023830
          CFI EndBlock cfiBlock23

        SECTION `.text`:CODE:REORDER:NOROOT(2)
        SECTION_GROUP _ZN8RegisterILj1073874944ELj32E13ReadWriteModeN5GPIOC14GPIOCMODERBaseEJ10FieldValueI26GPIOC_MODER_MODER15_ValuesINS1_5MODERELj10ELj2ES0_S2_ES2_Lj1EvES3_IS4_IS5_Lj16ELj2ES0_S2_ES2_Lj1EvES3_IS4_IS5_Lj18ELj2ES0_S2_ES2_Lj1EvEEE3SetIS0_vEEvv
          CFI Block cfiBlock24 Using cfiCommon0
          CFI Function _ZN8RegisterILj1073874944ELj32E13ReadWriteModeN5GPIOC14GPIOCMODERBaseEJ10FieldValueI26GPIOC_MODER_MODER15_ValuesINS1_5MODERELj10ELj2ES0_S2_ES2_Lj1EvES3_IS4_IS5_Lj16ELj2ES0_S2_ES2_Lj1EvES3_IS4_IS5_Lj18ELj2ES0_S2_ES2_Lj1EvEEE3SetIS0_vEEvv
          CFI NoCalls
        THUMB
// __interwork __vfp void Register<1073874944U, 32U, ReadWriteMode, GPIOC::GPIOCMODERBase, GPIOC_MODER_MODER15_Values<GPIOC::MODER, 10U, 2U, ReadWriteMode, GPIOC::GPIOCMODERBase>::Output, GPIOC_MODER_MODER15_Values<GPIOC::MODER, 16U, 2U, ReadWriteMode, GPIOC::GPIOCMODERBase>::Output, GPIOC_MODER_MODER15_Values<GPIOC::MODER, 18U, 2U, ReadWriteMode, GPIOC::GPIOCMODERBase>::Output>::Set<ReadWriteMode, void>()
_ZN8RegisterILj1073874944ELj32E13ReadWriteModeN5GPIOC14GPIOCMODERBaseEJ10FieldValueI26GPIOC_MODER_MODER15_ValuesINS1_5MODERELj10ELj2ES0_S2_ES2_Lj1EvES3_IS4_IS5_Lj16ELj2ES0_S2_ES2_Lj1EvES3_IS4_IS5_Lj18ELj2ES0_S2_ES2_Lj1EvEEE3SetIS0_vEEvv:
        LDR.N    R2,??Set_5       ;; 0x40020800
        LDR      R1,[R2, #+0]
        LDR.N    R0,??Set_5+0x4   ;; 0xfff0f3ff
        ANDS     R1,R0,R1
        ORR      R1,R1,#0x40000
        ORRS     R1,R1,#0x10400
        STR      R1,[R2, #+0]
        BX       LR               ;; return
        DATA
??Set_5:
        DATA32
        DC32     0x40020800
        DC32     0xfff0f3ff
          CFI EndBlock cfiBlock24

        SECTION `.text`:CODE:REORDER:NOROOT(1)
        SECTION_GROUP _ZN9OsWrapper4Rtos12CreateThreadI10ButtonTaskEEvRT_PKcNS_14ThreadPriorityE
          CFI Block cfiBlock25 Using cfiCommon0
          CFI Function _ZN9OsWrapper4Rtos12CreateThreadI10ButtonTaskEEvRT_PKcNS_14ThreadPriorityE
        THUMB
// __interwork __vfp void OsWrapper::Rtos::CreateThread<ButtonTask>(ButtonTask &, char const *, OsWrapper::ThreadPriority)
_ZN9OsWrapper4Rtos12CreateThreadI10ButtonTaskEEvRT_PKcNS_14ThreadPriorityE:
        PUSH     {R2-R6,LR}
          CFI R14 Frame(CFA, -4)
          CFI R6 Frame(CFA, -8)
          CFI R5 Frame(CFA, -12)
          CFI R4 Frame(CFA, -16)
          CFI CFA R13+24
        MOVS     R4,R0
        MOVS     R5,R1
        MOVS     R6,R2
        ADDS     R0,R4,#+92
          CFI FunCall _ZNSt5arrayIjLj128EE4dataEv
        BL       _ZNSt5arrayIjLj128EE4dataEv
        STR      R0,[SP, #+0]
        MOVS     R3,#+128
        MOVS     R2,R6
        UXTB     R2,R2            ;; ZeroExt  R2,R2,#+24,#+24
        MOVS     R1,R5
        MOVS     R0,R4
          CFI FunCall _ZN9OsWrapper11RtosWrapper13wCreateThreadINS_4RtosE10ButtonTaskEEvRT0_PKcNS_14ThreadPriorityEtPj
        BL       _ZN9OsWrapper11RtosWrapper13wCreateThreadINS_4RtosE10ButtonTaskEEvRT0_PKcNS_14ThreadPriorityEtPj
        POP      {R0,R1,R4-R6,PC}  ;; return
          CFI EndBlock cfiBlock25

        SECTION `.text`:CODE:REORDER:NOROOT(1)
        SECTION_GROUP _ZN9OsWrapper4Rtos12CreateThreadI7LedTaskEEvRT_PKcNS_14ThreadPriorityE
          CFI Block cfiBlock26 Using cfiCommon0
          CFI Function _ZN9OsWrapper4Rtos12CreateThreadI7LedTaskEEvRT_PKcNS_14ThreadPriorityE
        THUMB
// __interwork __vfp void OsWrapper::Rtos::CreateThread<LedTask>(LedTask &, char const *, OsWrapper::ThreadPriority)
_ZN9OsWrapper4Rtos12CreateThreadI7LedTaskEEvRT_PKcNS_14ThreadPriorityE:
        PUSH     {R2-R6,LR}
          CFI R14 Frame(CFA, -4)
          CFI R6 Frame(CFA, -8)
          CFI R5 Frame(CFA, -12)
          CFI R4 Frame(CFA, -16)
          CFI CFA R13+24
        MOVS     R4,R0
        MOVS     R5,R1
        MOVS     R6,R2
        ADDS     R0,R4,#+92
          CFI FunCall _ZNSt5arrayIjLj128EE4dataEv
        BL       _ZNSt5arrayIjLj128EE4dataEv
        STR      R0,[SP, #+0]
        MOVS     R3,#+128
        MOVS     R2,R6
        UXTB     R2,R2            ;; ZeroExt  R2,R2,#+24,#+24
        MOVS     R1,R5
        MOVS     R0,R4
          CFI FunCall _ZN9OsWrapper11RtosWrapper13wCreateThreadINS_4RtosE7LedTaskEEvRT0_PKcNS_14ThreadPriorityEtPj
        BL       _ZN9OsWrapper11RtosWrapper13wCreateThreadINS_4RtosE7LedTaskEEvRT0_PKcNS_14ThreadPriorityEtPj
        POP      {R0,R1,R4-R6,PC}  ;; return
          CFI EndBlock cfiBlock26

        SECTION `.text`:CODE:REORDER:NOROOT(1)
        SECTION_GROUP _ZN9OsWrapper4Rtos5StartEv
          CFI Block cfiBlock27 Using cfiCommon0
          CFI Function _ZN9OsWrapper4Rtos5StartEv
        THUMB
// __interwork __vfp void OsWrapper::Rtos::Start()
_ZN9OsWrapper4Rtos5StartEv:
        PUSH     {R7,LR}
          CFI R14 Frame(CFA, -4)
          CFI CFA R13+8
          CFI FunCall _ZN9OsWrapper11RtosWrapper6wStartEv
        BL       _ZN9OsWrapper11RtosWrapper6wStartEv
        POP      {R0,PC}          ;; return
          CFI EndBlock cfiBlock27

        SECTION `.text`:CODE:REORDER:NOROOT(1)
        SECTION_GROUP _ZN9OsWrapper4Rtos3RunEPv
          CFI Block cfiBlock28 Using cfiCommon0
          CFI Function _ZN9OsWrapper4Rtos3RunEPv
        THUMB
// __interwork __vfp void OsWrapper::Rtos::Run(void *)
_ZN9OsWrapper4Rtos3RunEPv:
        PUSH     {R7,LR}
          CFI R14 Frame(CFA, -4)
          CFI CFA R13+8
          CFI FunCall _ZN9OsWrapper7IThread3RunEv
        BL       _ZN9OsWrapper7IThread3RunEv
        POP      {R0,PC}          ;; return
          CFI EndBlock cfiBlock28

        SECTION `.text`:CODE:REORDER:NOROOT(1)
        SECTION_GROUP _ZN3LedI5GPIOCLi8EE6ToggleEv
          CFI Block cfiBlock29 Using cfiCommon0
          CFI Function _ZN3LedI5GPIOCLi8EE6ToggleEv
        THUMB
// __interwork __vfp void Led<GPIOC, 8>::Toggle()
_ZN3LedI5GPIOCLi8EE6ToggleEv:
        PUSH     {R7,LR}
          CFI R14 Frame(CFA, -4)
          CFI CFA R13+8
        MOV      R0,#+256
          CFI FunCall _ZN12RegisterBaseILj1073874964ELj32E13ReadWriteModeE6ToggleIS0_vEEvj
        BL       _ZN12RegisterBaseILj1073874964ELj32E13ReadWriteModeE6ToggleIS0_vEEvj
        POP      {R0,PC}          ;; return
          CFI EndBlock cfiBlock29

        SECTION `.text`:CODE:REORDER:NOROOT(1)
        SECTION_GROUP _ZN9OsWrapper5EventC1ENSt6chrono8durationIxSt5ratioILx1ELx1000EEEEj
          CFI Block cfiBlock30 Using cfiCommon0
          CFI Function _ZN9OsWrapper5EventC1ENSt6chrono8durationIxSt5ratioILx1ELx1000EEEEj
        THUMB
// __code __interwork __vfp OsWrapper::Event::Event(std::chrono::milliseconds, uint32_t)
_ZN9OsWrapper5EventC1ENSt6chrono8durationIxSt5ratioILx1ELx1000EEEEj:
        PUSH     {R3-R5,LR}
          CFI R14 Frame(CFA, -4)
          CFI R5 Frame(CFA, -8)
          CFI R4 Frame(CFA, -12)
          CFI CFA R13+16
        PUSH     {R0-R3}
          CFI CFA R13+32
        MOVS     R4,R0
        LDR      R5,[SP, #+32]
        MOVS     R0,#+0
        STR      R0,[R4, #+0]
        ADD      R0,SP,#+8
          CFI FunCall _ZNSt6chrono13duration_castINS_8durationIjSt5ratioILx10ELx1000EEEExS2_ILx1ELx1000EEEENSt9enable_ifIXsr3std6chrono12_Is_durationIT_EE5valueES7_E4typeERKNS1_IT0_T1_EE
        BL       _ZNSt6chrono13duration_castINS_8durationIjSt5ratioILx10ELx1000EEEExS2_ILx1ELx1000EEEENSt9enable_ifIXsr3std6chrono12_Is_durationIT_EE5valueES7_E4typeERKNS1_IT0_T1_EE
        STR      R0,[SP, #+0]
        MOV      R0,SP
          CFI FunCall _ZNKSt6chrono8durationIjSt5ratioILx10ELx1000EEE5countEv
        BL       _ZNKSt6chrono8durationIjSt5ratioILx10ELx1000EEE5countEv
        STR      R0,[R4, #+28]
        STR      R5,[R4, #+32]
        ADDS     R0,R4,#+4
          CFI FunCall _ZN9OsWrapper11RtosWrapper12wCreateEventER19xSTATIC_EVENT_GROUP
        BL       _ZN9OsWrapper11RtosWrapper12wCreateEventER19xSTATIC_EVENT_GROUP
        STR      R0,[R4, #+0]
        MOVS     R0,R4
        ADD      SP,SP,#+20
          CFI CFA R13+12
        POP      {R4,R5,PC}       ;; return
          CFI EndBlock cfiBlock30

        SECTION `.text`:CODE:REORDER:NOROOT(1)
        SECTION_GROUP _ZN9OsWrapper5EventD1Ev
          CFI Block cfiBlock31 Using cfiCommon0
          CFI Function _ZN9OsWrapper5EventD1Ev
        THUMB
// __code __interwork __vfp OsWrapper::Event::~Event()
_ZN9OsWrapper5EventD1Ev:
        PUSH     {R4,LR}
          CFI R14 Frame(CFA, -4)
          CFI R4 Frame(CFA, -8)
          CFI CFA R13+8
        MOVS     R4,R0
        MOVS     R0,R4
          CFI FunCall _ZN9OsWrapper11RtosWrapper12wDeleteEventERPv
        BL       _ZN9OsWrapper11RtosWrapper12wDeleteEventERPv
        MOVS     R0,R4
        POP      {R4,PC}          ;; return
          CFI EndBlock cfiBlock31

        SECTION `.text`:CODE:REORDER:NOROOT(1)
        SECTION_GROUP _ZN6ButtonI5GPIOCLi13EE9IsPressedEv
          CFI Block cfiBlock32 Using cfiCommon0
          CFI Function _ZN6ButtonI5GPIOCLi13EE9IsPressedEv
        THUMB
// __interwork __vfp bool Button<GPIOC, 13>::IsPressed()
_ZN6ButtonI5GPIOCLi13EE9IsPressedEv:
        PUSH     {R7,LR}
          CFI R14 Frame(CFA, -4)
          CFI CFA R13+8
          CFI FunCall _ZN12RegisterBaseILj1073874960ELj32E8ReadModeE3GetIS0_vEEjv
        BL       _ZN12RegisterBaseILj1073874960ELj32E8ReadModeE3GetIS0_vEEjv
        LSRS     R0,R0,#+13
        ANDS     R0,R0,#0x1
        EORS     R0,R0,#0x1
        UXTB     R0,R0            ;; ZeroExt  R0,R0,#+24,#+24
        POP      {R1,PC}          ;; return
          CFI EndBlock cfiBlock32

        SECTION `.iar_vfe_vtableinfo_ZTV3LedI5GPIOCLi8EE`:DATA:NOALLOC:NOROOT(2)
        SECTION_TYPE SHT_PROGBITS, 0
        SECTION_GROUP _ZTV3LedI5GPIOCLi8EE
        DATA
        DC32    _ZTV3LedI5GPIOCLi8EE
        DC32    3
        DC32    2
        DC32    _ZTI3LedI5GPIOCLi8EE
        DC32    1
        DC32    2
        DC32    0
        DC32    _ZTI4ILed
        DC32    0
        DC32    1
        DC32    _ZTI3LedI5GPIOCLi8EE
        DC32    1
        DC32    2
        DC32    0

        SECTION `.iar_vfe_vtableinfo_ZTV6ButtonI5GPIOCLi13EE`:DATA:NOALLOC:NOROOT(2)
        SECTION_TYPE SHT_PROGBITS, 0
        SECTION_GROUP _ZTV6ButtonI5GPIOCLi13EE
        DATA
        DC32    _ZTV6ButtonI5GPIOCLi13EE
        DC32    3
        DC32    2
        DC32    _ZTI6ButtonI5GPIOCLi13EE
        DC32    1
        DC32    2
        DC32    0
        DC32    _ZTI7IButton
        DC32    0
        DC32    1
        DC32    _ZTI6ButtonI5GPIOCLi13EE
        DC32    1
        DC32    2
        DC32    0

        SECTION `.init_array`:CODE:ROOT(2)
        SECTION_TYPE SHT_INIT_ARRAY, 0
        DATA
        DC32    RELOC_ARM_TARGET1 __sti__routine

        SECTION `.iar_vfe_vcallinfo_ZN9OsWrapper7IThread3RunEv`:DATA:NOALLOC:NOROOT(2)
        SECTION_TYPE SHT_PROGBITS, 0
        SECTION_GROUP _ZN9OsWrapper7IThread3RunEv
        DATA
        DC32    _ZN9OsWrapper7IThread3RunEv
        DC32    0
        DC32    0
        DC32    1
        DC32    _ZTIN9OsWrapper7IThreadE
        DC32    1
        DC32    1
        DC32    0
        DC32    0

        SECTION `.iar_vfe_header`:DATA:NOALLOC:NOROOT(2)
        SECTION_TYPE SHT_PROGBITS, 0
        DATA
        DC32 0

        END
// 
// 1'272 bytes in section .bss
//    12 bytes in section .data
//     4 bytes in section .init_array
//   243 bytes in section .rodata
//   730 bytes in section .text
// 
//   180 bytes of CODE  memory (+ 554 bytes shared)
//    40 bytes of CONST memory (+ 203 bytes shared)
// 1'284 bytes of DATA  memory
//
//Errors: none
//Warnings: none
